target datalayout = "e-m:e-p270:32:32-p271:32:32-p272:64:64-i64:64-i128:128-f80:128-n8:16:32:64-S128"
target triple = "x86_64-pc-linux-gnu"

%struct._object = type { i64, ptr }
%"class.nanobind::handle" = type { ptr }
%struct.Copyable = type { i32 }
%"struct.nanobind::detail::type_caster.237" = type { %"struct.nanobind::detail::type_caster_base.238" }
%"struct.nanobind::detail::type_caster_base.238" = type { ptr }
%"struct.nanobind::detail::tuple.252" = type { %"struct.nanobind::detail::type_caster.237" }
%class.anon.328 = type { i8 }

@_ZL16copy_constructed = internal global i32 0, align 4
@_ZL10destructed = internal global i32 0, align 4
@_Py_NoneStruct = external global %struct._object, align 8
@_ZTI8Copyable = linkonce_odr hidden constant { ptr, ptr } { ptr getelementptr inbounds (ptr, ptr @_ZTVN10__cxxabiv117__class_type_infoE, i64 2), ptr @_ZTS8Copyable }, comdat, align 8

; Function Attrs: alwaysinline mustprogress nounwind optsize uwtable
define linkonce_odr hidden noundef ptr @_ZNK8nanobind6handle3ptrEv(ptr noundef nonnull align 8 dereferenceable(8) %0) #3 comdat align 2 {
  %2 = alloca ptr, align 8
  store ptr %0, ptr %2, align 8, !tbaa !17
  %3 = load ptr, ptr %2, align 8
  %4 = getelementptr inbounds nuw %"class.nanobind::handle", ptr %3, i32 0, i32 0
  %5 = load ptr, ptr %4, align 8, !tbaa !19
  ret ptr %5
}

; Function Attrs: inlinehint mustprogress nounwind optsize uwtable
define internal void @_ZL10_Py_INCREFP7_object(ptr noundef %0) #11 {
  %2 = alloca ptr, align 8
  store ptr %0, ptr %2, align 8, !tbaa !3
  %3 = load ptr, ptr %2, align 8, !tbaa !3
  %4 = getelementptr inbounds nuw %struct._object, ptr %3, i32 0, i32 0
  %5 = load i64, ptr %4, align 8, !tbaa !33
  %6 = add nsw i64 %5, 1
  store i64 %6, ptr %4, align 8, !tbaa !33
  ret void
}

; Function Attrs: mustprogress nounwind optsize uwtable
define linkonce_odr hidden void @_ZN8CopyableD2Ev(ptr noundef nonnull align 4 dereferenceable(4) %0) unnamed_addr #2 comdat align 2 {
  %2 = alloca ptr, align 8
  store ptr %0, ptr %2, align 8, !tbaa !230
  %3 = load i32, ptr @_ZL10destructed, align 4, !tbaa !11
  %4 = add nsw i32 %3, 1
  store i32 %4, ptr @_ZL10destructed, align 4, !tbaa !11
  ret void
}

; Function Attrs: inlinehint mustprogress optsize uwtable
define internal void @"_ZZL26nanobind_init_test_stl_extRN8nanobind7module_EENK4$_11clE8Copyable"(ptr noundef nonnull align 1 dereferenceable(1) %0, ptr noundef %1) #10 align 2 {
  %3 = alloca ptr, align 8
  %4 = alloca ptr, align 8
  store ptr %0, ptr %3, align 8, !tbaa !8
  store ptr %1, ptr %4, align 8, !tbaa !230
  %5 = getelementptr inbounds nuw %struct.Copyable, ptr %1, i32 0, i32 0
  %6 = load i32, ptr %5, align 4, !tbaa !232
  %7 = icmp ne i32 %6, 5
  br i1 %7, label %8, label %9

8:                                                ; preds = %2
  call void @_Z4failv() #22
  br label %9

9:                                                ; preds = %8, %2
  ret void
}

; Function Attrs: mustprogress nounwind optsize uwtable
define linkonce_odr hidden void @_ZN8CopyableC2ERKS_(ptr noundef nonnull align 4 dereferenceable(4) %0, ptr noundef nonnull align 4 dereferenceable(4) %1) unnamed_addr #2 comdat align 2 {
  %3 = alloca ptr, align 8
  %4 = alloca ptr, align 8
  store ptr %0, ptr %3, align 8, !tbaa !230
  store ptr %1, ptr %4, align 8, !tbaa !230
  %5 = load ptr, ptr %3, align 8
  %6 = getelementptr inbounds nuw %struct.Copyable, ptr %5, i32 0, i32 0
  %7 = load ptr, ptr %4, align 8, !tbaa !230
  %8 = getelementptr inbounds nuw %struct.Copyable, ptr %7, i32 0, i32 0
  %9 = load i32, ptr %8, align 4, !tbaa !232
  store i32 %9, ptr %6, align 4, !tbaa !232
  %10 = load i32, ptr @_ZL16copy_constructed, align 4, !tbaa !11
  %11 = add nsw i32 %10, 1
  store i32 %11, ptr @_ZL16copy_constructed, align 4, !tbaa !11
  ret void
}

; Function Attrs: mustprogress optsize uwtable
define linkonce_odr hidden noundef nonnull align 4 dereferenceable(4) ptr @_ZN8nanobind6detail16type_caster_baseI8CopyableEcvRS2_Ev(ptr noundef nonnull align 8 dereferenceable(8) %0) #0 comdat align 2 {
  %2 = alloca ptr, align 8
  store ptr %0, ptr %2, align 8, !tbaa !248
  %3 = load ptr, ptr %2, align 8
  %4 = getelementptr inbounds nuw %"struct.nanobind::detail::type_caster_base.238", ptr %3, i32 0, i32 0
  %5 = load ptr, ptr %4, align 8, !tbaa !250
  call void @_ZN8nanobind6detail27raise_next_overload_if_nullEPv(ptr noundef %5) #22
  %6 = getelementptr inbounds nuw %"struct.nanobind::detail::type_caster_base.238", ptr %3, i32 0, i32 0
  %7 = load ptr, ptr %6, align 8, !tbaa !250
  ret ptr %7
}

; Function Attrs: alwaysinline mustprogress nounwind optsize uwtable
define linkonce_odr hidden noundef zeroext i1 @_ZN8nanobind6detail16type_caster_baseI8CopyableE11from_pythonENS_6handleEhPNS0_12cleanup_listE(ptr noundef nonnull align 8 dereferenceable(8) %0, ptr %1, i8 noundef zeroext %2, ptr noundef %3) #3 comdat align 2 {
  %5 = alloca %"class.nanobind::handle", align 8
  %6 = alloca ptr, align 8
  %7 = alloca i8, align 1
  %8 = alloca ptr, align 8
  %9 = getelementptr inbounds nuw %"class.nanobind::handle", ptr %5, i32 0, i32 0
  store ptr %1, ptr %9, align 8
  store ptr %0, ptr %6, align 8, !tbaa !248
  store i8 %2, ptr %7, align 1, !tbaa !57
  store ptr %3, ptr %8, align 8, !tbaa !167
  %10 = load ptr, ptr %6, align 8
  %11 = call noundef ptr @_ZNK8nanobind6handle3ptrEv(ptr noundef nonnull align 8 dereferenceable(8) %5) #22
  %12 = load i8, ptr %7, align 1, !tbaa !57
  %13 = load ptr, ptr %8, align 8, !tbaa !167
  %14 = getelementptr inbounds nuw %"struct.nanobind::detail::type_caster_base.238", ptr %10, i32 0, i32 0
  %15 = call noundef zeroext i1 @_ZN8nanobind6detail11nb_type_getEPKSt9type_infoP7_objecthPNS0_12cleanup_listEPPv(ptr noundef @_ZTI8Copyable, ptr noundef %11, i8 noundef zeroext %12, ptr noundef %13, ptr noundef %14) #23
  ret i1 %15
}

; Function Attrs: alwaysinline mustprogress nounwind optsize uwtable
define linkonce_odr hidden void @_ZN8nanobind6handleC2EPK7_object(ptr noundef nonnull align 8 dereferenceable(8) %0, ptr noundef %1) unnamed_addr #3 comdat align 2 {
  %3 = alloca ptr, align 8
  %4 = alloca ptr, align 8
  store ptr %0, ptr %3, align 8, !tbaa !17
  store ptr %1, ptr %4, align 8, !tbaa !3
  %5 = load ptr, ptr %3, align 8
  %6 = getelementptr inbounds nuw %"class.nanobind::handle", ptr %5, i32 0, i32 0
  %7 = load ptr, ptr %4, align 8, !tbaa !3
  store ptr %7, ptr %6, align 8, !tbaa !19
  ret void
}

; Function Attrs: alwaysinline mustprogress nounwind optsize uwtable
define linkonce_odr hidden noundef nonnull align 8 dereferenceable(8) ptr @_ZN8nanobind6detail5tupleIJNS0_11type_casterI8CopyableiEEEE3getILm0EEERDav(ptr noundef nonnull align 8 dereferenceable(8) %0) #3 comdat align 2 {
  %2 = alloca ptr, align 8
  store ptr %0, ptr %2, align 8, !tbaa !262
  %3 = load ptr, ptr %2, align 8
  %4 = getelementptr inbounds nuw %"struct.nanobind::detail::tuple.252", ptr %3, i32 0, i32 0
  ret ptr %4
}

; Function Attrs: alwaysinline mustprogress optsize uwtable
define internal noundef ptr @"_ZZN8nanobind6detail11func_createILb0ELb1EZL26nanobind_init_test_stl_extRNS_7module_EE4$_11vJ8CopyableEJLm0EEJNS_5scopeENS_4nameEEEEP7_objectOT1_PFT2_DpT3_ESt16integer_sequenceImJXspT4_EEEDpRKT5_ENKUlPvPS9_PhNS_9rv_policyEPNS0_12cleanup_listEE_clESN_SO_SP_SQ_SS_"(ptr noundef nonnull align 1 dereferenceable(1) %0, ptr noundef %1, ptr noundef %2, ptr noundef %3, i32 noundef %4, ptr noundef %5) #7 align 2 personality ptr @__gxx_personality_v0 {
  %7 = alloca ptr, align 8
  %8 = alloca ptr, align 8
  %9 = alloca ptr, align 8
  %10 = alloca ptr, align 8
  %11 = alloca ptr, align 8
  %12 = alloca i32, align 4
  %13 = alloca ptr, align 8
  %14 = alloca ptr, align 8
  %15 = alloca %"struct.nanobind::detail::tuple.252", align 8
  %16 = alloca %"class.nanobind::handle", align 8
  %17 = alloca i32, align 4
  %18 = alloca ptr, align 8
  %19 = alloca %struct.Copyable, align 4
  %20 = alloca ptr, align 8
  %21 = alloca i32, align 4
  store ptr %0, ptr %8, align 8, !tbaa !8
  store ptr %1, ptr %9, align 8, !tbaa !8
  store ptr %2, ptr %10, align 8, !tbaa !165
  store ptr %3, ptr %11, align 8, !tbaa !34
  store i32 %4, ptr %12, align 4, !tbaa !23
  store ptr %5, ptr %13, align 8, !tbaa !167
  call void @llvm.lifetime.start.p0(i64 8, ptr %14) #21
  %22 = load ptr, ptr %9, align 8, !tbaa !8
  store ptr %22, ptr %14, align 8, !tbaa !424
  call void @llvm.lifetime.start.p0(i64 8, ptr %15) #21
  %23 = call noundef nonnull align 8 dereferenceable(8) ptr @_ZN8nanobind6detail5tupleIJNS0_11type_casterI8CopyableiEEEE3getILm0EEERDav(ptr noundef nonnull align 8 dereferenceable(8) %15) #22
  %24 = load ptr, ptr %10, align 8, !tbaa !165
  %25 = getelementptr inbounds nuw ptr, ptr %24, i64 0
  %26 = load ptr, ptr %25, align 8, !tbaa !3
  call void @_ZN8nanobind6handleC2EPK7_object(ptr noundef nonnull align 8 dereferenceable(8) %16, ptr noundef %26) #22
  %27 = load ptr, ptr %11, align 8, !tbaa !34
  %28 = getelementptr inbounds nuw i8, ptr %27, i64 0
  %29 = load i8, ptr %28, align 1, !tbaa !57
  %30 = load ptr, ptr %13, align 8, !tbaa !167
  %31 = getelementptr inbounds nuw %"class.nanobind::handle", ptr %16, i32 0, i32 0
  %32 = load ptr, ptr %31, align 8
  %33 = call noundef zeroext i1 @_ZN8nanobind6detail16type_caster_baseI8CopyableE11from_pythonENS_6handleEhPNS0_12cleanup_listE(ptr noundef nonnull align 8 dereferenceable(8) %23, ptr %32, i8 noundef zeroext %29, ptr noundef %30) #23
  br i1 %33, label %35, label %34

34:                                               ; preds = %6
  store ptr inttoptr (i64 1 to ptr), ptr %7, align 8
  store i32 1, ptr %17, align 4
  br label %46

35:                                               ; preds = %6
  call void @llvm.lifetime.start.p0(i64 8, ptr %18) #21
  %36 = load ptr, ptr %14, align 8, !tbaa !424
  %37 = call noundef nonnull align 8 dereferenceable(8) ptr @_ZN8nanobind6detail5tupleIJNS0_11type_casterI8CopyableiEEEE3getILm0EEERDav(ptr noundef nonnull align 8 dereferenceable(8) %15) #22
  %38 = call noundef nonnull align 4 dereferenceable(4) ptr @_ZN8nanobind6detail16type_caster_baseI8CopyableEcvRS2_Ev(ptr noundef nonnull align 8 dereferenceable(8) %37) #22
  call void @_ZN8CopyableC2ERKS_(ptr noundef nonnull align 4 dereferenceable(4) %19, ptr noundef nonnull align 4 dereferenceable(4) %38) #22
  invoke void @"_ZZL26nanobind_init_test_stl_extRN8nanobind7module_EENK4$_11clE8Copyable"(ptr noundef nonnull align 1 dereferenceable(1) %36, ptr noundef %19) #22
          to label %39 unwind label %42

39:                                               ; preds = %35
  call void @_ZN8CopyableD2Ev(ptr noundef nonnull align 4 dereferenceable(4) %19) #23
  store ptr @_Py_NoneStruct, ptr %18, align 8, !tbaa !3
  %40 = load ptr, ptr %18, align 8, !tbaa !3
  call void @_ZL10_Py_INCREFP7_object(ptr noundef %40) #22
  %41 = load ptr, ptr %18, align 8, !tbaa !3
  store ptr %41, ptr %7, align 8
  store i32 1, ptr %17, align 4
  call void @llvm.lifetime.end.p0(i64 8, ptr %18) #21
  br label %46

42:                                               ; preds = %35
  %43 = landingpad { ptr, i32 }
          cleanup
  %44 = extractvalue { ptr, i32 } %43, 0
  store ptr %44, ptr %20, align 8
  %45 = extractvalue { ptr, i32 } %43, 1
  store i32 %45, ptr %21, align 4
  call void @_ZN8CopyableD2Ev(ptr noundef nonnull align 4 dereferenceable(4) %19) #23
  call void @llvm.lifetime.end.p0(i64 8, ptr %18) #21
  call void @llvm.lifetime.end.p0(i64 8, ptr %15) #21
  call void @llvm.lifetime.end.p0(i64 8, ptr %14) #21
  br label %48

46:                                               ; preds = %39, %34
  call void @llvm.lifetime.end.p0(i64 8, ptr %15) #21
  call void @llvm.lifetime.end.p0(i64 8, ptr %14) #21
  %47 = load ptr, ptr %7, align 8
  ret ptr %47

48:                                               ; preds = %42
  %49 = load ptr, ptr %20, align 8
  %50 = load i32, ptr %21, align 4
  %51 = insertvalue { ptr, i32 } poison, ptr %49, 0
  %52 = insertvalue { ptr, i32 } %51, i32 %50, 1
  resume { ptr, i32 } %52
}

; Function Attrs: inlinehint mustprogress optsize uwtable
define internal noundef ptr @"_ZZN8nanobind6detail11func_createILb0ELb1EZL26nanobind_init_test_stl_extRNS_7module_EE4$_11vJ8CopyableEJLm0EEJNS_5scopeENS_4nameEEEEP7_objectOT1_PFT2_DpT3_ESt16integer_sequenceImJXspT4_EEEDpRKT5_ENUlPvPS9_PhNS_9rv_policyEPNS0_12cleanup_listEE_8__invokeESN_SO_SP_SQ_SS_"(ptr noundef %0, ptr noundef %1, ptr noundef %2, i32 noundef %3, ptr noundef %4) #10 align 2 {
  %6 = alloca ptr, align 8
  %7 = alloca ptr, align 8
  %8 = alloca ptr, align 8
  %9 = alloca i32, align 4
  %10 = alloca ptr, align 8
  %11 = alloca %class.anon.328, align 1
  store ptr %0, ptr %6, align 8, !tbaa !8
  store ptr %1, ptr %7, align 8, !tbaa !165
  store ptr %2, ptr %8, align 8, !tbaa !34
  store i32 %3, ptr %9, align 4, !tbaa !23
  store ptr %4, ptr %10, align 8, !tbaa !167
  %12 = load ptr, ptr %6, align 8, !tbaa !8
  %13 = load ptr, ptr %7, align 8, !tbaa !165
  %14 = load ptr, ptr %8, align 8, !tbaa !34
  %15 = load i32, ptr %9, align 4, !tbaa !23
  %16 = load ptr, ptr %10, align 8, !tbaa !167
  %17 = call noundef ptr @"_ZZN8nanobind6detail11func_createILb0ELb1EZL26nanobind_init_test_stl_extRNS_7module_EE4$_11vJ8CopyableEJLm0EEJNS_5scopeENS_4nameEEEEP7_objectOT1_PFT2_DpT3_ESt16integer_sequenceImJXspT4_EEEDpRKT5_ENKUlPvPS9_PhNS_9rv_policyEPNS0_12cleanup_listEE_clESN_SO_SP_SQ_SS_"(ptr noundef nonnull align 1 dereferenceable(1) %11, ptr noundef %12, ptr noundef %13, ptr noundef %14, i32 noundef %15, ptr noundef %16) #22
  ret ptr %17
}